; Function Attrs: nounwind uwtable
define hidden range(i32 -1, 7) i32 @SDL_GetDayOfWeek_REAL(i32 noundef %0, i32 noundef %1, i32 noundef %2) local_unnamed_addr #1 {
  %4 = add i32 %1, -13
  %or.cond = icmp ult i32 %4, -12
  br i1 %or.cond, label %5, label %7

5:                                                ; preds = %3
  %6 = tail call zeroext i1 (ptr, ...) @SDL_SetError_REAL(ptr noundef nonnull @.str, i32 noundef %1) #5
  br label %62

7:                                                ; preds = %3
  %8 = icmp slt i32 %2, 1
  %.pre = add nsw i32 %1, -1
  %.pre27 = zext nneg i32 %.pre to i64
  br i1 %8, label %._crit_edge, label %9

._crit_edge:                                      ; preds = %7
  %.pre29 = and i32 %0, 3
  br label %19

9:                                                ; preds = %7
  %10 = getelementptr inbounds nuw [12 x i32], ptr @SDL_GetDaysInMonth_REAL.DAYS_IN_MONTH, i64 0, i64 %.pre27
  %11 = load i32, ptr %10, align 4
  %12 = icmp eq i32 %1, 2
  %13 = and i32 %0, 3
  %.not.i = icmp eq i32 %13, 0
  %or.cond16.i = and i1 %12, %.not.i
  br i1 %or.cond16.i, label %14, label %SDL_GetDaysInMonth_REAL.exit

14:                                               ; preds = %9
  %15 = srem i32 %0, 100
  %.not14.i = icmp ne i32 %15, 0
  %16 = srem i32 %0, 400
  %.not15.i = icmp eq i32 %16, 0
  %or.cond17.i = or i1 %.not14.i, %.not15.i
  %17 = zext i1 %or.cond17.i to i32
  %spec.select.i = add nsw i32 %11, %17
  br label %SDL_GetDaysInMonth_REAL.exit

SDL_GetDaysInMonth_REAL.exit:                     ; preds = %9, %14
  %.012.i = phi i32 [ %11, %9 ], [ %spec.select.i, %14 ]
  %18 = icmp sgt i32 %2, %.012.i
  br i1 %18, label %19, label %28

19:                                               ; preds = %._crit_edge, %SDL_GetDaysInMonth_REAL.exit
  %.pre-phi30 = phi i32 [ %.pre29, %._crit_edge ], [ %13, %SDL_GetDaysInMonth_REAL.exit ]
  %20 = getelementptr inbounds nuw [12 x i32], ptr @SDL_GetDaysInMonth_REAL.DAYS_IN_MONTH, i64 0, i64 %.pre27
  %21 = load i32, ptr %20, align 4
  %22 = icmp eq i32 %1, 2
  %.not.i18 = icmp eq i32 %.pre-phi30, 0
  %or.cond16.i19 = and i1 %22, %.not.i18
  br i1 %or.cond16.i19, label %23, label %SDL_GetDaysInMonth_REAL.exit25

23:                                               ; preds = %19
  %24 = srem i32 %0, 100
  %.not14.i21 = icmp ne i32 %24, 0
  %25 = srem i32 %0, 400
  %.not15.i22 = icmp eq i32 %25, 0
  %or.cond17.i23 = or i1 %.not14.i21, %.not15.i22
  %26 = zext i1 %or.cond17.i23 to i32
  %spec.select.i24 = add nsw i32 %21, %26
  br label %SDL_GetDaysInMonth_REAL.exit25

SDL_GetDaysInMonth_REAL.exit25:                   ; preds = %19, %23
  %.012.i20 = phi i32 [ %21, %19 ], [ %spec.select.i24, %23 ]
  %27 = tail call zeroext i1 (ptr, ...) @SDL_SetError_REAL(ptr noundef nonnull @.str.1, i32 noundef %.012.i20, i32 noundef %1) #5
  br label %62

28:                                               ; preds = %SDL_GetDaysInMonth_REAL.exit
  %29 = icmp samesign ult i32 %1, 3
  %.neg.i = sext i1 %29 to i32
  %30 = add i32 %0, %.neg.i
  %31 = add nsw i32 %30, -399
  %32 = icmp slt i32 %30, 0
  %33 = select i1 %32, i32 %31, i32 %30
  %34 = sdiv i32 %33, 400
  %.neg36.i = mul nsw i32 %34, -400
  %35 = add i32 %.neg36.i, %30
  %36 = icmp samesign ugt i32 %1, 2
  %.v.i = select i1 %36, i32 65533, i32 9
  %37 = add nuw nsw i32 %.v.i, %1
  %38 = trunc i32 %37 to i16
  %39 = mul i16 %38, 153
  %.lhs.trunc = add i16 %39, 2
  %40 = udiv i16 %.lhs.trunc, 5
  %.zext = zext nneg i16 %40 to i32
  %41 = mul i32 %35, 365
  %42 = lshr i32 %35, 2
  %43 = udiv i32 %35, 100
  %44 = add nsw i32 %2, -1
  %45 = add nuw i32 %44, %.zext
  %46 = add nuw i32 %45, %42
  %47 = add i32 %46, %41
  %48 = sub i32 %47, %43
  %49 = sext i32 %34 to i64
  %50 = mul nsw i64 %49, 146097
  %51 = zext i32 %48 to i64
  %52 = add nsw i64 %50, %51
  %53 = icmp sgt i64 %52, 719463
  br i1 %53, label %54, label %57

54:                                               ; preds = %28
  %55 = add nsw i64 %52, -719464
  %56 = urem i64 %55, 7
  br label %SDL_CivilToDays.exit

57:                                               ; preds = %28
  %.nonneg.i = sub nsw i64 719463, %52
  %58 = urem i64 %.nonneg.i, 7
  %59 = sub nuw nsw i64 6, %58
  br label %SDL_CivilToDays.exit

SDL_CivilToDays.exit:                             ; preds = %54, %57
  %60 = phi i64 [ %56, %54 ], [ %59, %57 ]
  %61 = trunc nuw nsw i64 %60 to i32
  br label %62

62:                                               ; preds = %SDL_CivilToDays.exit, %SDL_GetDaysInMonth_REAL.exit25, %5
  %.0 = phi i32 [ -1, %5 ], [ -1, %SDL_GetDaysInMonth_REAL.exit25 ], [ %61, %SDL_CivilToDays.exit ]
  ret i32 %.0
}